target datalayout = "e-m:e-p270:32:32-p271:32:32-p272:64:64-i64:64-i128:128-f80:128-n8:16:32:64-S128"
target triple = "x86_64-pc-linux-gnu"

%"struct.std::_Rb_tree_key_compare" = type { %"struct.std::less" }
%"struct.std::less" = type { i8 }
%"struct.std::_Rb_tree_header" = type { %"struct.std::_Rb_tree_node_base", i64 }
%"struct.std::_Rb_tree_node_base" = type { i32, ptr, ptr, ptr }
%"class.std::__cxx11::basic_string" = type { %"struct.std::__cxx11::basic_string<char>::_Alloc_hider", i64, %union.anon }
%"struct.std::__cxx11::basic_string<char>::_Alloc_hider" = type { ptr }
%union.anon = type { i64, [8 x i8] }
%"class.std::vector.29" = type { %"struct.std::_Vector_base.30" }
%"struct.std::_Vector_base.30" = type { %"struct.std::_Vector_base<int, std::allocator<int>>::_Vector_impl" }
%"struct.std::_Vector_base<int, std::allocator<int>>::_Vector_impl" = type { %"struct.std::_Vector_base<int, std::allocator<int>>::_Vector_impl_data" }
%"struct.std::_Vector_base<int, std::allocator<int>>::_Vector_impl_data" = type { ptr, ptr, ptr }
%"struct.Yosys::hashlib::hash_ops" = type { i8 }
%"struct.(anonymous namespace)::SimWorker" = type { %"struct.(anonymous namespace)::SimShared.base", ptr, %"class.Yosys::hashlib::pool", %"class.Yosys::hashlib::pool", %"class.Yosys::hashlib::pool", %"class.Yosys::hashlib::pool", %"class.std::__cxx11::basic_string", %"class.std::__cxx11::basic_string", %"class.std::__cxx11::basic_string", %"class.std::__cxx11::basic_string", %"class.std::__cxx11::basic_string" }
%"struct.(anonymous namespace)::SimShared.base" = type <{ i8, i8, i8, i8, i8, i8, [2 x i8], i32, [4 x i8], ptr, double, double, i32, i8, [3 x i8], %"class.std::vector.9", %"class.std::vector.14", i8, i8, i8, i8, i32, i32, [4 x i8], %"class.std::vector.19", %"class.std::vector.24", i8, i8 }>
%"class.std::vector.9" = type { %"struct.std::_Vector_base.10" }
%"struct.std::_Vector_base.10" = type { %"struct.std::_Vector_base<std::unique_ptr<(anonymous namespace)::OutputWriter>, std::allocator<std::unique_ptr<(anonymous namespace)::OutputWriter>>>::_Vector_impl" }
%"struct.std::_Vector_base<std::unique_ptr<(anonymous namespace)::OutputWriter>, std::allocator<std::unique_ptr<(anonymous namespace)::OutputWriter>>>::_Vector_impl" = type { %"struct.std::_Vector_base<std::unique_ptr<(anonymous namespace)::OutputWriter>, std::allocator<std::unique_ptr<(anonymous namespace)::OutputWriter>>>::_Vector_impl_data" }
%"struct.std::_Vector_base<std::unique_ptr<(anonymous namespace)::OutputWriter>, std::allocator<std::unique_ptr<(anonymous namespace)::OutputWriter>>>::_Vector_impl_data" = type { ptr, ptr, ptr }
%"class.std::vector.14" = type { %"struct.std::_Vector_base.15" }
%"struct.std::_Vector_base.15" = type { %"struct.std::_Vector_base<std::pair<int, std::map<int, Yosys::RTLIL::Const>>, std::allocator<std::pair<int, std::map<int, Yosys::RTLIL::Const>>>>::_Vector_impl" }
%"struct.std::_Vector_base<std::pair<int, std::map<int, Yosys::RTLIL::Const>>, std::allocator<std::pair<int, std::map<int, Yosys::RTLIL::Const>>>>::_Vector_impl" = type { %"struct.std::_Vector_base<std::pair<int, std::map<int, Yosys::RTLIL::Const>>, std::allocator<std::pair<int, std::map<int, Yosys::RTLIL::Const>>>>::_Vector_impl_data" }
%"struct.std::_Vector_base<std::pair<int, std::map<int, Yosys::RTLIL::Const>>, std::allocator<std::pair<int, std::map<int, Yosys::RTLIL::Const>>>>::_Vector_impl_data" = type { ptr, ptr, ptr }
%"class.std::vector.19" = type { %"struct.std::_Vector_base.20" }
%"struct.std::_Vector_base.20" = type { %"struct.std::_Vector_base<(anonymous namespace)::TriggeredAssertion, std::allocator<(anonymous namespace)::TriggeredAssertion>>::_Vector_impl" }
%"struct.std::_Vector_base<(anonymous namespace)::TriggeredAssertion, std::allocator<(anonymous namespace)::TriggeredAssertion>>::_Vector_impl" = type { %"struct.std::_Vector_base<(anonymous namespace)::TriggeredAssertion, std::allocator<(anonymous namespace)::TriggeredAssertion>>::_Vector_impl_data" }
%"struct.std::_Vector_base<(anonymous namespace)::TriggeredAssertion, std::allocator<(anonymous namespace)::TriggeredAssertion>>::_Vector_impl_data" = type { ptr, ptr, ptr }
%"class.std::vector.24" = type { %"struct.std::_Vector_base.25" }
%"struct.std::_Vector_base.25" = type { %"struct.std::_Vector_base<(anonymous namespace)::DisplayOutput, std::allocator<(anonymous namespace)::DisplayOutput>>::_Vector_impl" }
%"struct.std::_Vector_base<(anonymous namespace)::DisplayOutput, std::allocator<(anonymous namespace)::DisplayOutput>>::_Vector_impl" = type { %"struct.std::_Vector_base<(anonymous namespace)::DisplayOutput, std::allocator<(anonymous namespace)::DisplayOutput>>::_Vector_impl_data" }
%"struct.std::_Vector_base<(anonymous namespace)::DisplayOutput, std::allocator<(anonymous namespace)::DisplayOutput>>::_Vector_impl_data" = type { ptr, ptr, ptr }
%"class.Yosys::hashlib::pool" = type <{ %"class.std::vector.29", %"class.std::vector.34", %"struct.Yosys::hashlib::hash_ops", [7 x i8] }>
%"class.std::vector.34" = type { %"struct.std::_Vector_base.35" }
%"struct.std::_Vector_base.35" = type { %"struct.std::_Vector_base<Yosys::hashlib::pool<Yosys::RTLIL::IdString>::entry_t, std::allocator<Yosys::hashlib::pool<Yosys::RTLIL::IdString>::entry_t>>::_Vector_impl" }
%"struct.std::_Vector_base<Yosys::hashlib::pool<Yosys::RTLIL::IdString>::entry_t, std::allocator<Yosys::hashlib::pool<Yosys::RTLIL::IdString>::entry_t>>::_Vector_impl" = type { %"struct.std::_Vector_base<Yosys::hashlib::pool<Yosys::RTLIL::IdString>::entry_t, std::allocator<Yosys::hashlib::pool<Yosys::RTLIL::IdString>::entry_t>>::_Vector_impl_data" }
%"struct.std::_Vector_base<Yosys::hashlib::pool<Yosys::RTLIL::IdString>::entry_t, std::allocator<Yosys::hashlib::pool<Yosys::RTLIL::IdString>::entry_t>>::_Vector_impl_data" = type { ptr, ptr, ptr }
%"struct.(anonymous namespace)::SimShared" = type <{ i8, i8, i8, i8, i8, i8, [2 x i8], i32, [4 x i8], ptr, double, double, i32, i8, [3 x i8], %"class.std::vector.9", %"class.std::vector.14", i8, i8, i8, i8, i32, i32, [4 x i8], %"class.std::vector.19", %"class.std::vector.24", i8, i8, [6 x i8] }>
%"class.std::vector.594" = type { %"struct.std::_Vector_base.595" }
%"struct.std::_Vector_base.595" = type { %"struct.std::_Vector_base<unsigned int, std::allocator<unsigned int>>::_Vector_impl" }
%"struct.std::_Vector_base<unsigned int, std::allocator<unsigned int>>::_Vector_impl" = type { %"struct.std::_Vector_base<unsigned int, std::allocator<unsigned int>>::_Vector_impl_data" }
%"struct.std::_Vector_base<unsigned int, std::allocator<unsigned int>>::_Vector_impl_data" = type { ptr, ptr, ptr }
%"class.std::function.591" = type { %"class.std::_Function_base", ptr }
%"class.std::_Function_base" = type { %"union.std::_Any_data", ptr }
%"union.std::_Any_data" = type { %"union.std::_Nocopy_types" }
%"union.std::_Nocopy_types" = type { { i64, i64 } }
%class.anon.917 = type { ptr, ptr, ptr, ptr, ptr, ptr }
%"class.Yosys::FstData" = type { ptr, %"class.std::vector.563", %"class.std::map.568", %"class.std::map.576", %"class.std::map.581", %"class.std::map.586", i64, %"class.std::map.586", i64, double, %"class.std::__cxx11::basic_string", i64, i64, %"class.std::function.591", %"class.std::vector.594", i8, %"class.std::__cxx11::basic_string" }
%"class.std::vector.563" = type { %"struct.std::_Vector_base.564" }
%"struct.std::_Vector_base.564" = type { %"struct.std::_Vector_base<Yosys::FstVar, std::allocator<Yosys::FstVar>>::_Vector_impl" }
%"struct.std::_Vector_base<Yosys::FstVar, std::allocator<Yosys::FstVar>>::_Vector_impl" = type { %"struct.std::_Vector_base<Yosys::FstVar, std::allocator<Yosys::FstVar>>::_Vector_impl_data" }
%"struct.std::_Vector_base<Yosys::FstVar, std::allocator<Yosys::FstVar>>::_Vector_impl_data" = type { ptr, ptr, ptr }
%"class.std::map.568" = type { %"class.std::_Rb_tree.569" }
%"class.std::_Rb_tree.569" = type { %"struct.std::_Rb_tree<unsigned int, std::pair<const unsigned int, Yosys::FstVar>, std::_Select1st<std::pair<const unsigned int, Yosys::FstVar>>, std::less<unsigned int>>::_Rb_tree_impl" }
%"struct.std::_Rb_tree<unsigned int, std::pair<const unsigned int, Yosys::FstVar>, std::_Select1st<std::pair<const unsigned int, Yosys::FstVar>>, std::less<unsigned int>>::_Rb_tree_impl" = type { %"struct.std::_Rb_tree_key_compare.573", %"struct.std::_Rb_tree_header" }
%"struct.std::_Rb_tree_key_compare.573" = type { %"struct.std::less.574" }
%"struct.std::less.574" = type { i8 }
%"class.std::map.576" = type { %"class.std::_Rb_tree.577" }
%"class.std::_Rb_tree.577" = type { %"struct.std::_Rb_tree<std::__cxx11::basic_string<char>, std::pair<const std::__cxx11::basic_string<char>, unsigned int>, std::_Select1st<std::pair<const std::__cxx11::basic_string<char>, unsigned int>>, std::less<std::__cxx11::basic_string<char>>>::_Rb_tree_impl" }
%"struct.std::_Rb_tree<std::__cxx11::basic_string<char>, std::pair<const std::__cxx11::basic_string<char>, unsigned int>, std::_Select1st<std::pair<const std::__cxx11::basic_string<char>, unsigned int>>, std::less<std::__cxx11::basic_string<char>>>::_Rb_tree_impl" = type { %"struct.std::_Rb_tree_key_compare", %"struct.std::_Rb_tree_header" }
%"class.std::map.581" = type { %"class.std::_Rb_tree.582" }
%"class.std::_Rb_tree.582" = type { %"struct.std::_Rb_tree<std::__cxx11::basic_string<char>, std::pair<const std::__cxx11::basic_string<char>, Yosys::hashlib::dict<int, unsigned int>>, std::_Select1st<std::pair<const std::__cxx11::basic_string<char>, Yosys::hashlib::dict<int, unsigned int>>>, std::less<std::__cxx11::basic_string<char>>>::_Rb_tree_impl" }
%"struct.std::_Rb_tree<std::__cxx11::basic_string<char>, std::pair<const std::__cxx11::basic_string<char>, Yosys::hashlib::dict<int, unsigned int>>, std::_Select1st<std::pair<const std::__cxx11::basic_string<char>, Yosys::hashlib::dict<int, unsigned int>>>, std::less<std::__cxx11::basic_string<char>>>::_Rb_tree_impl" = type { %"struct.std::_Rb_tree_key_compare", %"struct.std::_Rb_tree_header" }
%"class.std::map.586" = type { %"class.std::_Rb_tree.587" }
%"class.std::_Rb_tree.587" = type { %"struct.std::_Rb_tree<unsigned int, std::pair<const unsigned int, std::__cxx11::basic_string<char>>, std::_Select1st<std::pair<const unsigned int, std::__cxx11::basic_string<char>>>, std::less<unsigned int>>::_Rb_tree_impl" }
%"struct.std::_Rb_tree<unsigned int, std::pair<const unsigned int, std::__cxx11::basic_string<char>>, std::_Select1st<std::pair<const unsigned int, std::__cxx11::basic_string<char>>>, std::less<unsigned int>>::_Rb_tree_impl" = type { %"struct.std::_Rb_tree_key_compare.573", %"struct.std::_Rb_tree_header" }

@_ZTIN5Yosys25fst_end_of_data_exceptionE = linkonce_odr constant { ptr, ptr } { ptr getelementptr inbounds (ptr, ptr @_ZTVN10__cxxabiv117__class_type_infoE, i64 2), ptr @_ZTSN5Yosys25fst_end_of_data_exceptionE }, comdat, align 8
@.str.290 = private unnamed_addr constant [30 x i8] c"Co-simulating %s %d [%lu%s].\0A\00", align 1
@.str.291 = private unnamed_addr constant [7 x i8] c"sample\00", align 1
@.str.292 = private unnamed_addr constant [6 x i8] c"cycle\00", align 1
@.str.293 = private unnamed_addr constant [19 x i8] c"Signal difference\0A\00", align 1

; Function Attrs: mustprogress nounwind uwtable
define linkonce_odr noundef ptr @_ZN5Yosys7FstData18getTimescaleStringEv(ptr noundef nonnull align 8 dereferenceable(440) %0) #5 comdat align 2 {
  %2 = alloca ptr, align 8
  store ptr %0, ptr %2, align 8
  %3 = load ptr, ptr %2, align 8
  %4 = getelementptr inbounds %"class.Yosys::FstData", ptr %3, i32 0, i32 10
  %5 = call noundef ptr @_ZNKSt7__cxx1112basic_stringIcSt11char_traitsIcESaIcEE5c_strEv(ptr noundef nonnull align 8 dereferenceable(32) %4) #3
  ret ptr %5
}

; Function Attrs: mustprogress uwtable
define internal void @_ZZN12_GLOBAL__N_19SimWorker13run_cosim_fstEPN5Yosys5RTLIL6ModuleEiENKUlmE_clEm(ptr noundef nonnull align 8 dereferenceable(48) %0, i64 noundef %1) #4 align 2 {
  %3 = alloca ptr, align 8
  %4 = alloca i64, align 8
  %5 = alloca i8, align 1
  %6 = alloca i8, align 1
  store ptr %0, ptr %3, align 8
  store i64 %1, ptr %4, align 8
  %7 = load ptr, ptr %3, align 8
  %8 = getelementptr inbounds %class.anon.917, ptr %7, i32 0, i32 0
  %9 = load ptr, ptr %8, align 8
  %10 = getelementptr inbounds %"struct.(anonymous namespace)::SimShared", ptr %9, i32 0, i32 1
  %11 = load i8, ptr %10, align 1
  %12 = trunc i8 %11 to i1
  br i1 %12, label %13, label %26

13:                                               ; preds = %2
  %14 = getelementptr inbounds %class.anon.917, ptr %7, i32 0, i32 1
  %15 = load ptr, ptr %14, align 8
  %16 = load i8, ptr %15, align 1
  %17 = trunc i8 %16 to i1
  %18 = select i1 %17, ptr @.str.291, ptr @.str.292
  %19 = getelementptr inbounds %class.anon.917, ptr %7, i32 0, i32 2
  %20 = load ptr, ptr %19, align 8
  %21 = load i32, ptr %20, align 4
  %22 = load i64, ptr %4, align 8
  %23 = getelementptr inbounds %"struct.(anonymous namespace)::SimShared", ptr %9, i32 0, i32 9
  %24 = load ptr, ptr %23, align 8
  %25 = call noundef ptr @_ZN5Yosys7FstData18getTimescaleStringEv(ptr noundef nonnull align 8 dereferenceable(440) %24)
  call void (ptr, ...) @_ZN5Yosys3logEPKcz(ptr noundef @.str.290, ptr noundef %18, i32 noundef %21, i64 noundef %22, ptr noundef %25)
  br label %26

26:                                               ; preds = %13, %2
  %27 = getelementptr inbounds %"struct.(anonymous namespace)::SimWorker", ptr %9, i32 0, i32 1
  %28 = load ptr, ptr %27, align 8
  %29 = call noundef zeroext i1 @_ZN12_GLOBAL__N_111SimInstance9setInputsEv(ptr noundef nonnull align 8 dereferenceable(1368) %28)
  %30 = zext i1 %29 to i8
  store i8 %30, ptr %5, align 1
  %31 = getelementptr inbounds %class.anon.917, ptr %7, i32 0, i32 3
  %32 = load ptr, ptr %31, align 8
  %33 = load i8, ptr %32, align 1
  %34 = trunc i8 %33 to i1
  br i1 %34, label %35, label %48

35:                                               ; preds = %26
  %36 = getelementptr inbounds %"struct.(anonymous namespace)::SimWorker", ptr %9, i32 0, i32 1
  %37 = load ptr, ptr %36, align 8
  %38 = call noundef zeroext i1 @_ZN12_GLOBAL__N_111SimInstance12setInitStateEv(ptr noundef nonnull align 8 dereferenceable(1368) %37)
  %39 = zext i1 %38 to i32
  %40 = load i8, ptr %5, align 1
  %41 = trunc i8 %40 to i1
  %42 = zext i1 %41 to i32
  %43 = or i32 %42, %39
  %44 = icmp ne i32 %43, 0
  %45 = zext i1 %44 to i8
  store i8 %45, ptr %5, align 1
  call void @_ZN12_GLOBAL__N_19SimWorker22initialize_stable_pastEv(ptr noundef nonnull align 8 dereferenceable(560) %9)
  %46 = getelementptr inbounds %class.anon.917, ptr %7, i32 0, i32 3
  %47 = load ptr, ptr %46, align 8
  store i8 0, ptr %47, align 1
  br label %48

48:                                               ; preds = %35, %26
  %49 = load i8, ptr %5, align 1
  %50 = trunc i8 %49 to i1
  br i1 %50, label %51, label %52

51:                                               ; preds = %48
  call void @_ZN12_GLOBAL__N_19SimWorker6updateEb(ptr noundef nonnull align 8 dereferenceable(560) %9, i1 noundef zeroext true)
  br label %52

52:                                               ; preds = %51, %48
  %53 = load i64, ptr %4, align 8
  %54 = trunc i64 %53 to i32
  call void @_ZN12_GLOBAL__N_19SimWorker20register_output_stepEi(ptr noundef nonnull align 8 dereferenceable(560) %9, i32 noundef %54)
  %55 = getelementptr inbounds %"struct.(anonymous namespace)::SimWorker", ptr %9, i32 0, i32 1
  %56 = load ptr, ptr %55, align 8
  %57 = call noundef zeroext i1 @_ZN12_GLOBAL__N_111SimInstance12checkSignalsEv(ptr noundef nonnull align 8 dereferenceable(1368) %56)
  %58 = zext i1 %57 to i8
  store i8 %58, ptr %6, align 1
  %59 = load i8, ptr %6, align 1
  %60 = trunc i8 %59 to i1
  br i1 %60, label %61, label %62

61:                                               ; preds = %52
  call void (ptr, ...) @_ZN5Yosys9log_errorEPKcz(ptr noundef @.str.293) #23
  unreachable

62:                                               ; preds = %52
  %63 = getelementptr inbounds %class.anon.917, ptr %7, i32 0, i32 2
  %64 = load ptr, ptr %63, align 8
  %65 = load i32, ptr %64, align 4
  %66 = add nsw i32 %65, 1
  store i32 %66, ptr %64, align 4
  %67 = getelementptr inbounds %"struct.(anonymous namespace)::SimShared", ptr %9, i32 0, i32 13
  %68 = load i8, ptr %67, align 4
  %69 = trunc i8 %68 to i1
  br i1 %69, label %70, label %81

70:                                               ; preds = %62
  %71 = getelementptr inbounds %class.anon.917, ptr %7, i32 0, i32 2
  %72 = load ptr, ptr %71, align 8
  %73 = load i32, ptr %72, align 4
  %74 = getelementptr inbounds %class.anon.917, ptr %7, i32 0, i32 4
  %75 = load ptr, ptr %74, align 8
  %76 = load i32, ptr %75, align 4
  %77 = mul nsw i32 %76, 2
  %78 = icmp sgt i32 %73, %77
  br i1 %78, label %79, label %81

79:                                               ; preds = %70
  %80 = call ptr @__cxa_allocate_exception(i64 1) #3
  call void @__cxa_throw(ptr %80, ptr @_ZTIN5Yosys25fst_end_of_data_exceptionE, ptr null) #23
  unreachable

81:                                               ; preds = %70, %62
  %82 = load i64, ptr %4, align 8
  %83 = getelementptr inbounds %class.anon.917, ptr %7, i32 0, i32 5
  %84 = load ptr, ptr %83, align 8
  %85 = load i64, ptr %84, align 8
  %86 = icmp eq i64 %82, %85
  br i1 %86, label %87, label %89

87:                                               ; preds = %81
  %88 = call ptr @__cxa_allocate_exception(i64 1) #3
  call void @__cxa_throw(ptr %88, ptr @_ZTIN5Yosys25fst_end_of_data_exceptionE, ptr null) #23
  unreachable

89:                                               ; preds = %81
  ret void
}

; Function Attrs: mustprogress nounwind uwtable
define linkonce_odr noundef ptr @_ZNKSt9_Any_data9_M_accessEv(ptr noundef nonnull align 8 dereferenceable(16) %0) #5 comdat align 2 {
  %2 = alloca ptr, align 8
  store ptr %0, ptr %2, align 8
  %3 = load ptr, ptr %2, align 8
  %4 = getelementptr inbounds [16 x i8], ptr %3, i64 0, i64 0
  ret ptr %4
}

; Function Attrs: mustprogress uwtable
define internal void @_ZSt13__invoke_implIvRZN12_GLOBAL__N_19SimWorker13run_cosim_fstEPN5Yosys5RTLIL6ModuleEiEUlmE_JmEET_St14__invoke_otherOT0_DpOT1_(ptr noundef nonnull align 8 dereferenceable(48) %0, ptr noundef nonnull align 8 dereferenceable(8) %1) #4 {
  %3 = alloca ptr, align 8
  %4 = alloca ptr, align 8
  store ptr %0, ptr %3, align 8
  store ptr %1, ptr %4, align 8
  %5 = load ptr, ptr %3, align 8
  %6 = load ptr, ptr %4, align 8
  %7 = load i64, ptr %6, align 8
  call void @_ZZN12_GLOBAL__N_19SimWorker13run_cosim_fstEPN5Yosys5RTLIL6ModuleEiENKUlmE_clEm(ptr noundef nonnull align 8 dereferenceable(48) %5, i64 noundef %7)
  ret void
}

; Function Attrs: mustprogress nounwind uwtable
define internal noundef nonnull align 8 dereferenceable(8) ptr @_ZNKSt9_Any_data9_M_accessIPZN12_GLOBAL__N_19SimWorker13run_cosim_fstEPN5Yosys5RTLIL6ModuleEiEUlmE_EERKT_v(ptr noundef nonnull align 8 dereferenceable(16) %0) #5 align 2 {
  %2 = alloca ptr, align 8
  store ptr %0, ptr %2, align 8
  %3 = load ptr, ptr %2, align 8
  %4 = call noundef ptr @_ZNKSt9_Any_data9_M_accessEv(ptr noundef nonnull align 8 dereferenceable(16) %3) #3
  ret ptr %4
}

; Function Attrs: mustprogress uwtable
define internal void @_ZSt10__invoke_rIvRZN12_GLOBAL__N_19SimWorker13run_cosim_fstEPN5Yosys5RTLIL6ModuleEiEUlmE_JmEENSt9enable_ifIXsr6__and_ISt7is_voidIT_ESt14__is_invocableIT0_JDpT1_EEEE5valueESA_E4typeEOSD_DpOSE_(ptr noundef nonnull align 8 dereferenceable(48) %0, ptr noundef nonnull align 8 dereferenceable(8) %1) #4 {
  %3 = alloca ptr, align 8
  %4 = alloca ptr, align 8
  store ptr %0, ptr %3, align 8
  store ptr %1, ptr %4, align 8
  %5 = load ptr, ptr %3, align 8
  %6 = load ptr, ptr %4, align 8
  call void @_ZSt13__invoke_implIvRZN12_GLOBAL__N_19SimWorker13run_cosim_fstEPN5Yosys5RTLIL6ModuleEiEUlmE_JmEET_St14__invoke_otherOT0_DpOT1_(ptr noundef nonnull align 8 dereferenceable(48) %5, ptr noundef nonnull align 8 dereferenceable(8) %6)
  ret void
}

; Function Attrs: mustprogress nounwind uwtable
define internal noundef ptr @_ZNSt14_Function_base13_Base_managerIZN12_GLOBAL__N_19SimWorker13run_cosim_fstEPN5Yosys5RTLIL6ModuleEiEUlmE_E14_M_get_pointerERKSt9_Any_data(ptr noundef nonnull align 8 dereferenceable(16) %0) #5 align 2 {
  %2 = alloca ptr, align 8
  store ptr %0, ptr %2, align 8
  %3 = load ptr, ptr %2, align 8
  %4 = call noundef nonnull align 8 dereferenceable(8) ptr @_ZNKSt9_Any_data9_M_accessIPZN12_GLOBAL__N_19SimWorker13run_cosim_fstEPN5Yosys5RTLIL6ModuleEiEUlmE_EERKT_v(ptr noundef nonnull align 8 dereferenceable(16) %3) #3
  %5 = load ptr, ptr %4, align 8
  ret ptr %5
}

; Function Attrs: mustprogress uwtable
define internal void @_ZNSt17_Function_handlerIFvmEZN12_GLOBAL__N_19SimWorker13run_cosim_fstEPN5Yosys5RTLIL6ModuleEiEUlmE_E9_M_invokeERKSt9_Any_dataOm(ptr noundef nonnull align 8 dereferenceable(16) %0, ptr noundef nonnull align 8 dereferenceable(8) %1) #4 align 2 {
  %3 = alloca ptr, align 8
  %4 = alloca ptr, align 8
  store ptr %0, ptr %3, align 8
  store ptr %1, ptr %4, align 8
  %5 = load ptr, ptr %3, align 8
  %6 = call noundef ptr @_ZNSt14_Function_base13_Base_managerIZN12_GLOBAL__N_19SimWorker13run_cosim_fstEPN5Yosys5RTLIL6ModuleEiEUlmE_E14_M_get_pointerERKSt9_Any_data(ptr noundef nonnull align 8 dereferenceable(16) %5) #3
  %7 = load ptr, ptr %4, align 8
  call void @_ZSt10__invoke_rIvRZN12_GLOBAL__N_19SimWorker13run_cosim_fstEPN5Yosys5RTLIL6ModuleEiEUlmE_JmEENSt9enable_ifIXsr6__and_ISt7is_voidIT_ESt14__is_invocableIT0_JDpT1_EEEE5valueESA_E4typeEOSD_DpOSE_(ptr noundef nonnull align 8 dereferenceable(48) %6, ptr noundef nonnull align 8 dereferenceable(8) %7)
  ret void
}