; Function Attrs: mustprogress uwtable
define internal void @_ZNSt17_Function_handlerIFvmEZN12_GLOBAL__N_19SimWorker13run_cosim_fstEPN5Yosys5RTLIL6ModuleEiEUlmE_E9_M_invokeERKSt9_Any_dataOm(ptr nocapture noundef nonnull readonly align 8 dereferenceable(16) %0, ptr nocapture noundef nonnull readonly align 8 dereferenceable(8) %1) #4 align 2 {
  %.val = load ptr, ptr %0, align 8
  %.val2 = load i64, ptr %1, align 8
  %3 = load ptr, ptr %.val, align 8
  %4 = getelementptr inbounds i8, ptr %3, i64 1
  %5 = load i8, ptr %4, align 1
  %6 = and i8 %5, 1
  %.not.i.i.i = icmp eq i8 %6, 0
  br i1 %.not.i.i.i, label %20, label %7

7:                                                ; preds = %2
  %8 = getelementptr inbounds i8, ptr %.val, i64 8
  %9 = load ptr, ptr %8, align 8
  %10 = load i8, ptr %9, align 1
  %11 = and i8 %10, 1
  %.not6.i.i.i = icmp eq i8 %11, 0
  %12 = select i1 %.not6.i.i.i, ptr @.str.292, ptr @.str.291
  %13 = getelementptr inbounds i8, ptr %.val, i64 16
  %14 = load ptr, ptr %13, align 8
  %15 = load i32, ptr %14, align 4
  %16 = getelementptr inbounds i8, ptr %3, i64 16
  %17 = load ptr, ptr %16, align 8
  %18 = getelementptr inbounds i8, ptr %17, i64 296
  %19 = tail call noundef ptr @_ZNKSt7__cxx1112basic_stringIcSt11char_traitsIcESaIcEE5c_strEv(ptr noundef nonnull align 8 dereferenceable(32) %18) #31
  tail call void (ptr, ...) @_ZN5Yosys3logEPKcz(ptr noundef nonnull @.str.290, ptr noundef nonnull %12, i32 noundef %15, i64 noundef %.val2, ptr noundef %19)
  br label %20

20:                                               ; preds = %7, %2
  %21 = getelementptr inbounds i8, ptr %3, i64 168
  %22 = load ptr, ptr %21, align 8
  %23 = tail call fastcc noundef zeroext i1 @_ZN12_GLOBAL__N_111SimInstance9setInputsEv(ptr noundef nonnull align 8 dereferenceable(1368) %22)
  %24 = getelementptr inbounds i8, ptr %.val, i64 24
  %25 = load ptr, ptr %24, align 8
  %26 = load i8, ptr %25, align 1
  %27 = and i8 %26, 1
  %.not7.i.i.i = icmp eq i8 %27, 0
  br i1 %.not7.i.i.i, label %33, label %28

28:                                               ; preds = %20
  %29 = load ptr, ptr %21, align 8
  %30 = tail call fastcc noundef zeroext i1 @_ZN12_GLOBAL__N_111SimInstance12setInitStateEv(ptr noundef nonnull align 8 dereferenceable(1368) %29)
  %31 = or i1 %23, %30
  tail call fastcc void @_ZN12_GLOBAL__N_19SimWorker22initialize_stable_pastEv(ptr noundef nonnull align 8 dereferenceable(560) %3)
  %32 = load ptr, ptr %24, align 8
  store i8 0, ptr %32, align 1
  br i1 %31, label %34, label %35

33:                                               ; preds = %20
  br i1 %23, label %34, label %35

34:                                               ; preds = %33, %28
  tail call fastcc void @_ZN12_GLOBAL__N_19SimWorker6updateEb(ptr noundef nonnull align 8 dereferenceable(560) %3, i1 noundef zeroext true)
  br label %35

35:                                               ; preds = %34, %33, %28
  %36 = trunc i64 %.val2 to i32
  tail call fastcc void @_ZN12_GLOBAL__N_19SimWorker20register_output_stepEi(ptr noundef nonnull align 8 dereferenceable(560) %3, i32 noundef %36)
  %37 = load ptr, ptr %21, align 8
  %38 = tail call fastcc noundef zeroext i1 @_ZN12_GLOBAL__N_111SimInstance12checkSignalsEv(ptr noundef nonnull align 8 dereferenceable(1368) %37)
  br i1 %38, label %39, label %40

39:                                               ; preds = %35
  tail call void (ptr, ...) @_ZN5Yosys9log_errorEPKcz(ptr noundef nonnull @.str.293) #34
  unreachable

40:                                               ; preds = %35
  %41 = getelementptr inbounds i8, ptr %.val, i64 16
  %42 = load ptr, ptr %41, align 8
  %43 = load i32, ptr %42, align 4
  %44 = add nsw i32 %43, 1
  store i32 %44, ptr %42, align 4
  %45 = getelementptr inbounds i8, ptr %3, i64 44
  %46 = load i8, ptr %45, align 4
  %47 = and i8 %46, 1
  %.not8.i.i.i = icmp eq i8 %47, 0
  br i1 %.not8.i.i.i, label %58, label %48

48:                                               ; preds = %40
  %49 = load ptr, ptr %41, align 8
  %50 = load i32, ptr %49, align 4
  %51 = getelementptr inbounds i8, ptr %.val, i64 32
  %52 = load ptr, ptr %51, align 8
  %53 = load i32, ptr %52, align 4
  %54 = shl nsw i32 %53, 1
  %55 = icmp sgt i32 %50, %54
  br i1 %55, label %56, label %58

56:                                               ; preds = %48
  %57 = tail call ptr @__cxa_allocate_exception(i64 1) #31
  tail call void @__cxa_throw(ptr %57, ptr nonnull @_ZTIN5Yosys25fst_end_of_data_exceptionE, ptr null) #34
  unreachable

58:                                               ; preds = %48, %40
  %59 = getelementptr inbounds i8, ptr %.val, i64 40
  %60 = load ptr, ptr %59, align 8
  %61 = load i64, ptr %60, align 8
  %62 = icmp eq i64 %61, %.val2
  br i1 %62, label %63, label %_ZSt10__invoke_rIvRZN12_GLOBAL__N_19SimWorker13run_cosim_fstEPN5Yosys5RTLIL6ModuleEiEUlmE_JmEENSt9enable_ifIXsr6__and_ISt7is_voidIT_ESt14__is_invocableIT0_JDpT1_EEEE5valueESA_E4typeEOSD_DpOSE_.exit

63:                                               ; preds = %58
  %64 = tail call ptr @__cxa_allocate_exception(i64 1) #31
  tail call void @__cxa_throw(ptr %64, ptr nonnull @_ZTIN5Yosys25fst_end_of_data_exceptionE, ptr null) #34
  unreachable

_ZSt10__invoke_rIvRZN12_GLOBAL__N_19SimWorker13run_cosim_fstEPN5Yosys5RTLIL6ModuleEiEUlmE_JmEENSt9enable_ifIXsr6__and_ISt7is_voidIT_ESt14__is_invocableIT0_JDpT1_EEEE5valueESA_E4typeEOSD_DpOSE_.exit: ; preds = %58
  ret void
}